target datalayout = "e-m:e-p270:32:32-p271:32:32-p272:64:64-i64:64-i128:128-f80:128-n8:16:32:64-S128"
target triple = "x86_64-pc-linux-gnu"

%struct.If_Cut_t_ = type <{ float, float, float, float, i32, i32, i32, i64, [0 x i32] }>

; Function Attrs: nounwind uwtable
define void @If_CutOrder(ptr noundef %0) #0 {
  %2 = alloca ptr, align 8
  %3 = alloca i32, align 4
  %4 = alloca i32, align 4
  %5 = alloca i32, align 4
  store ptr %0, ptr %2, align 8, !tbaa !15
  call void @llvm.lifetime.start.p0(i64 4, ptr %3) #9
  call void @llvm.lifetime.start.p0(i64 4, ptr %4) #9
  call void @llvm.lifetime.start.p0(i64 4, ptr %5) #9
  br label %6

6:                                                ; preds = %63, %1
  store i32 0, ptr %5, align 4, !tbaa !8
  store i32 0, ptr %3, align 4, !tbaa !8
  br label %7

7:                                                ; preds = %59, %6
  %8 = load i32, ptr %3, align 4, !tbaa !8
  %9 = load ptr, ptr %2, align 8, !tbaa !15
  %10 = getelementptr inbounds nuw %struct.If_Cut_t_, ptr %9, i32 0, i32 7
  %11 = load i64, ptr %10, align 4
  %12 = lshr i64 %11, 24
  %13 = and i64 %12, 255
  %14 = trunc i64 %13 to i32
  %15 = sub nsw i32 %14, 1
  %16 = icmp slt i32 %8, %15
  br i1 %16, label %17, label %62

17:                                               ; preds = %7
  %18 = load ptr, ptr %2, align 8, !tbaa !15
  %19 = getelementptr inbounds nuw %struct.If_Cut_t_, ptr %18, i32 0, i32 8
  %20 = load i32, ptr %3, align 4, !tbaa !8
  %21 = sext i32 %20 to i64
  %22 = getelementptr inbounds [0 x i32], ptr %19, i64 0, i64 %21
  %23 = load i32, ptr %22, align 4, !tbaa !8
  %24 = load ptr, ptr %2, align 8, !tbaa !15
  %25 = getelementptr inbounds nuw %struct.If_Cut_t_, ptr %24, i32 0, i32 8
  %26 = load i32, ptr %3, align 4, !tbaa !8
  %27 = add nsw i32 %26, 1
  %28 = sext i32 %27 to i64
  %29 = getelementptr inbounds [0 x i32], ptr %25, i64 0, i64 %28
  %30 = load i32, ptr %29, align 4, !tbaa !8
  %31 = icmp sle i32 %23, %30
  br i1 %31, label %32, label %33

32:                                               ; preds = %17
  br label %59

33:                                               ; preds = %17
  %34 = load ptr, ptr %2, align 8, !tbaa !15
  %35 = getelementptr inbounds nuw %struct.If_Cut_t_, ptr %34, i32 0, i32 8
  %36 = load i32, ptr %3, align 4, !tbaa !8
  %37 = sext i32 %36 to i64
  %38 = getelementptr inbounds [0 x i32], ptr %35, i64 0, i64 %37
  %39 = load i32, ptr %38, align 4, !tbaa !8
  store i32 %39, ptr %4, align 4, !tbaa !8
  %40 = load ptr, ptr %2, align 8, !tbaa !15
  %41 = getelementptr inbounds nuw %struct.If_Cut_t_, ptr %40, i32 0, i32 8
  %42 = load i32, ptr %3, align 4, !tbaa !8
  %43 = add nsw i32 %42, 1
  %44 = sext i32 %43 to i64
  %45 = getelementptr inbounds [0 x i32], ptr %41, i64 0, i64 %44
  %46 = load i32, ptr %45, align 4, !tbaa !8
  %47 = load ptr, ptr %2, align 8, !tbaa !15
  %48 = getelementptr inbounds nuw %struct.If_Cut_t_, ptr %47, i32 0, i32 8
  %49 = load i32, ptr %3, align 4, !tbaa !8
  %50 = sext i32 %49 to i64
  %51 = getelementptr inbounds [0 x i32], ptr %48, i64 0, i64 %50
  store i32 %46, ptr %51, align 4, !tbaa !8
  %52 = load i32, ptr %4, align 4, !tbaa !8
  %53 = load ptr, ptr %2, align 8, !tbaa !15
  %54 = getelementptr inbounds nuw %struct.If_Cut_t_, ptr %53, i32 0, i32 8
  %55 = load i32, ptr %3, align 4, !tbaa !8
  %56 = add nsw i32 %55, 1
  %57 = sext i32 %56 to i64
  %58 = getelementptr inbounds [0 x i32], ptr %54, i64 0, i64 %57
  store i32 %52, ptr %58, align 4, !tbaa !8
  store i32 1, ptr %5, align 4, !tbaa !8
  br label %59

59:                                               ; preds = %33, %32
  %60 = load i32, ptr %3, align 4, !tbaa !8
  %61 = add nsw i32 %60, 1
  store i32 %61, ptr %3, align 4, !tbaa !8
  br label %7, !llvm.loop !92

62:                                               ; preds = %7
  br label %63

63:                                               ; preds = %62
  %64 = load i32, ptr %5, align 4, !tbaa !8
  %65 = icmp ne i32 %64, 0
  br i1 %65, label %6, label %66, !llvm.loop !93

66:                                               ; preds = %63
  call void @llvm.lifetime.end.p0(i64 4, ptr %5) #9
  call void @llvm.lifetime.end.p0(i64 4, ptr %4) #9
  call void @llvm.lifetime.end.p0(i64 4, ptr %3) #9
  ret void
}