; Function Attrs: nofree norecurse nosync nounwind memory(argmem: readwrite) uwtable
define void @If_CutOrder(ptr noundef captures(none) %0) local_unnamed_addr #3 {
  %2 = getelementptr inbounds nuw i8, ptr %0, i64 28
  %3 = load i64, ptr %2, align 4
  %4 = trunc i64 %3 to i32
  %5 = icmp ugt i32 %4, 33554431
  %6 = getelementptr inbounds nuw i8, ptr %0, i64 36
  br i1 %5, label %.lr.ph.us.preheader, label %.split23.us

.lr.ph.us.preheader:                              ; preds = %1
  %7 = lshr i32 %4, 24
  %smax = add nsw i32 %7, -1
  %wide.trip.count = zext nneg i32 %smax to i64
  br label %.lr.ph.us

.lr.ph.us:                                        ; preds = %.lr.ph.us.preheader, %._crit_edge.us
  %.pre = load i32, ptr %6, align 4, !tbaa !14
  br label %8

8:                                                ; preds = %.lr.ph.us, %14
  %9 = phi i32 [ %.pre, %.lr.ph.us ], [ %15, %14 ]
  %indvars.iv = phi i64 [ 0, %.lr.ph.us ], [ %indvars.iv.next, %14 ]
  %.021.us = phi i32 [ 0, %.lr.ph.us ], [ %.1.us, %14 ]
  %indvars.iv.next = add nuw nsw i64 %indvars.iv, 1
  %10 = getelementptr inbounds nuw [0 x i32], ptr %6, i64 0, i64 %indvars.iv.next
  %11 = load i32, ptr %10, align 4, !tbaa !14
  %.not19.us = icmp sgt i32 %9, %11
  br i1 %.not19.us, label %12, label %14

12:                                               ; preds = %8
  %13 = getelementptr inbounds nuw [0 x i32], ptr %6, i64 0, i64 %indvars.iv
  store i32 %11, ptr %13, align 4, !tbaa !14
  store i32 %9, ptr %10, align 4, !tbaa !14
  br label %14

14:                                               ; preds = %12, %8
  %15 = phi i32 [ %11, %8 ], [ %9, %12 ]
  %.1.us = phi i32 [ %.021.us, %8 ], [ 1, %12 ]
  %exitcond.not = icmp eq i64 %indvars.iv.next, %wide.trip.count
  br i1 %exitcond.not, label %._crit_edge.us, label %8, !llvm.loop !84

._crit_edge.us:                                   ; preds = %14
  %.not.us = icmp eq i32 %.1.us, 0
  br i1 %.not.us, label %.split23.us, label %.lr.ph.us, !llvm.loop !85

.split23.us:                                      ; preds = %._crit_edge.us, %1
  ret void
}